target datalayout = "e-m:e-p270:32:32-p271:32:32-p272:64:64-i64:64-i128:128-f80:128-n8:16:32:64-S128"
target triple = "x86_64-pc-linux-gnu"

; Function Attrs: nounwind uwtable
define i32 @is_member(ptr noundef %0, ptr noundef %1) #0 {
  %3 = alloca i32, align 4
  %4 = alloca ptr, align 8
  %5 = alloca ptr, align 8
  store ptr %0, ptr %4, align 8, !tbaa !60
  store ptr %1, ptr %5, align 8, !tbaa !6
  br label %6

6:                                                ; preds = %17, %2
  %7 = load ptr, ptr %4, align 8, !tbaa !60
  %8 = load ptr, ptr %7, align 8, !tbaa !6
  %9 = icmp ne ptr %8, null
  br i1 %9, label %10, label %20

10:                                               ; preds = %6
  %11 = load ptr, ptr %4, align 8, !tbaa !60
  %12 = load ptr, ptr %11, align 8, !tbaa !6
  %13 = load ptr, ptr %5, align 8, !tbaa !6
  %14 = call i32 @g_strcmp0(ptr noundef %12, ptr noundef %13)
  %15 = icmp ne i32 %14, 0
  br i1 %15, label %17, label %16

16:                                               ; preds = %10
  store i32 1, ptr %3, align 4
  br label %21

17:                                               ; preds = %10
  %18 = load ptr, ptr %4, align 8, !tbaa !60
  %19 = getelementptr inbounds nuw ptr, ptr %18, i32 1
  store ptr %19, ptr %4, align 8, !tbaa !60
  br label %6

20:                                               ; preds = %6
  store i32 0, ptr %3, align 4
  br label %21

21:                                               ; preds = %20, %16
  %22 = load i32, ptr %3, align 4
  ret i32 %22
}