; Function Attrs: nounwind uwtable
define range(i32 0, 2) i32 @is_member(ptr noundef readonly captures(none) %0, ptr noundef %1) local_unnamed_addr #0 {
  %3 = load ptr, ptr %0, align 8, !tbaa !52
  %.not7 = icmp eq ptr %3, null
  br i1 %.not7, label %._crit_edge, label %.lr.ph

4:                                                ; preds = %.lr.ph
  %5 = getelementptr inbounds nuw i8, ptr %.048, i64 8
  %6 = load ptr, ptr %5, align 8, !tbaa !52
  %.not = icmp eq ptr %6, null
  br i1 %.not, label %._crit_edge, label %.lr.ph

.lr.ph:                                           ; preds = %2, %4
  %7 = phi ptr [ %6, %4 ], [ %3, %2 ]
  %.048 = phi ptr [ %5, %4 ], [ %0, %2 ]
  %8 = tail call i32 @g_strcmp0(ptr noundef nonnull %7, ptr noundef %1) #11
  %.not6 = icmp eq i32 %8, 0
  br i1 %.not6, label %._crit_edge, label %4

._crit_edge:                                      ; preds = %.lr.ph, %4, %2
  %.0 = phi i32 [ 0, %2 ], [ 0, %4 ], [ 1, %.lr.ph ]
  ret i32 %.0
}